target datalayout = "e-m:e-p270:32:32-p271:32:32-p272:64:64-i64:64-i128:128-f80:128-n8:16:32:64-S128"
target triple = "x86_64-pc-linux-gnu"

%struct.AVFilterContext = type { ptr, ptr, ptr, ptr, ptr, i32, ptr, ptr, i32, ptr, ptr, i32, i32, ptr, ptr, ptr, ptr, i32, ptr, i32, i32 }
%struct.GBlurContext = type { ptr, float, float, i32, i32, i32, i32, i32, [4 x i32], [4 x i32], ptr, ptr, float, float, float, float, float, float, i32, ptr, ptr, ptr }
%struct.ThreadData = type { i32, i32 }

; Function Attrs: nounwind uwtable
define internal i32 @filter_postscale(ptr noundef %0, ptr noundef %1, i32 noundef %2, i32 noundef %3) #2 {
  %5 = alloca ptr, align 8
  %6 = alloca ptr, align 8
  %7 = alloca i32, align 4
  %8 = alloca i32, align 4
  %9 = alloca ptr, align 8
  %10 = alloca ptr, align 8
  %11 = alloca float, align 4
  %12 = alloca float, align 4
  %13 = alloca i32, align 4
  %14 = alloca i32, align 4
  %15 = alloca i32, align 4
  %16 = alloca i32, align 4
  %17 = alloca i32, align 4
  %18 = alloca float, align 4
  %19 = alloca i32, align 4
  store ptr %0, ptr %5, align 8, !tbaa !4
  store ptr %1, ptr %6, align 8, !tbaa !84
  store i32 %2, ptr %7, align 4, !tbaa !45
  store i32 %3, ptr %8, align 4, !tbaa !45
  call void @llvm.lifetime.start.p0(i64 8, ptr %9) #8
  %20 = load ptr, ptr %5, align 8, !tbaa !4
  %21 = getelementptr inbounds nuw %struct.AVFilterContext, ptr %20, i32 0, i32 9
  %22 = load ptr, ptr %21, align 8, !tbaa !9
  store ptr %22, ptr %9, align 8, !tbaa !22
  call void @llvm.lifetime.start.p0(i64 8, ptr %10) #8
  %23 = load ptr, ptr %6, align 8, !tbaa !84
  store ptr %23, ptr %10, align 8, !tbaa !85
  call void @llvm.lifetime.start.p0(i64 4, ptr %11) #8
  %24 = load ptr, ptr %9, align 8, !tbaa !22
  %25 = getelementptr inbounds nuw %struct.GBlurContext, ptr %24, i32 0, i32 5
  %26 = load i32, ptr %25, align 8, !tbaa !54
  %27 = icmp ne i32 %26, 0
  br i1 %27, label %28, label %29

28:                                               ; preds = %4
  br label %36

29:                                               ; preds = %4
  %30 = load ptr, ptr %9, align 8, !tbaa !22
  %31 = getelementptr inbounds nuw %struct.GBlurContext, ptr %30, i32 0, i32 6
  %32 = load i32, ptr %31, align 4, !tbaa !53
  %33 = shl i32 1, %32
  %34 = sub nsw i32 %33, 1
  %35 = sitofp i32 %34 to float
  br label %36

36:                                               ; preds = %29, %28
  %37 = phi nsz float [ 0x47EFFFFFE0000000, %28 ], [ %35, %29 ]
  store float %37, ptr %11, align 4, !tbaa !56
  call void @llvm.lifetime.start.p0(i64 4, ptr %12) #8
  %38 = load ptr, ptr %9, align 8, !tbaa !22
  %39 = getelementptr inbounds nuw %struct.GBlurContext, ptr %38, i32 0, i32 5
  %40 = load i32, ptr %39, align 8, !tbaa !54
  %41 = icmp ne i32 %40, 0
  %42 = select nsz i1 %41, float 0xC7EFFFFFE0000000, float 0.000000e+00
  store float %42, ptr %12, align 4, !tbaa !56
  call void @llvm.lifetime.start.p0(i64 4, ptr %13) #8
  %43 = load ptr, ptr %10, align 8, !tbaa !85
  %44 = getelementptr inbounds nuw %struct.ThreadData, ptr %43, i32 0, i32 0
  %45 = load i32, ptr %44, align 4, !tbaa !83
  store i32 %45, ptr %13, align 4, !tbaa !45
  call void @llvm.lifetime.start.p0(i64 4, ptr %14) #8
  %46 = load ptr, ptr %10, align 8, !tbaa !85
  %47 = getelementptr inbounds nuw %struct.ThreadData, ptr %46, i32 0, i32 1
  %48 = load i32, ptr %47, align 4, !tbaa !81
  store i32 %48, ptr %14, align 4, !tbaa !45
  call void @llvm.lifetime.start.p0(i64 4, ptr %15) #8
  %49 = load i32, ptr %14, align 4, !tbaa !45
  %50 = add nsw i32 %49, 64
  %51 = sub nsw i32 %50, 1
  %52 = and i32 %51, -64
  store i32 %52, ptr %15, align 4, !tbaa !45
  call void @llvm.lifetime.start.p0(i64 4, ptr %16) #8
  %53 = load i32, ptr %13, align 4, !tbaa !45
  %54 = load i32, ptr %7, align 4, !tbaa !45
  %55 = mul nsw i32 %53, %54
  %56 = load i32, ptr %8, align 4, !tbaa !45
  %57 = sdiv i32 %55, %56
  store i32 %57, ptr %16, align 4, !tbaa !45
  call void @llvm.lifetime.start.p0(i64 4, ptr %17) #8
  %58 = load i32, ptr %13, align 4, !tbaa !45
  %59 = load i32, ptr %7, align 4, !tbaa !45
  %60 = add nsw i32 %59, 1
  %61 = mul nsw i32 %58, %60
  %62 = load i32, ptr %8, align 4, !tbaa !45
  %63 = sdiv i32 %61, %62
  store i32 %63, ptr %17, align 4, !tbaa !45
  call void @llvm.lifetime.start.p0(i64 4, ptr %18) #8
  %64 = load ptr, ptr %9, align 8, !tbaa !22
  %65 = getelementptr inbounds nuw %struct.GBlurContext, ptr %64, i32 0, i32 14
  %66 = load float, ptr %65, align 8, !tbaa !95
  %67 = load ptr, ptr %9, align 8, !tbaa !22
  %68 = getelementptr inbounds nuw %struct.GBlurContext, ptr %67, i32 0, i32 15
  %69 = load float, ptr %68, align 4, !tbaa !96
  %70 = fmul nsz float %66, %69
  store float %70, ptr %18, align 4, !tbaa !56
  call void @llvm.lifetime.start.p0(i64 4, ptr %19) #8
  %71 = load i32, ptr %17, align 4, !tbaa !45
  %72 = load i32, ptr %16, align 4, !tbaa !45
  %73 = sub nsw i32 %71, %72
  store i32 %73, ptr %19, align 4, !tbaa !45
  %74 = load ptr, ptr %9, align 8, !tbaa !22
  %75 = getelementptr inbounds nuw %struct.GBlurContext, ptr %74, i32 0, i32 21
  %76 = load ptr, ptr %75, align 8, !tbaa !97
  %77 = load ptr, ptr %9, align 8, !tbaa !22
  %78 = getelementptr inbounds nuw %struct.GBlurContext, ptr %77, i32 0, i32 10
  %79 = load ptr, ptr %78, align 8, !tbaa !47
  %80 = load i32, ptr %16, align 4, !tbaa !45
  %81 = load i32, ptr %15, align 4, !tbaa !45
  %82 = mul nsw i32 %80, %81
  %83 = sext i32 %82 to i64
  %84 = getelementptr inbounds float, ptr %79, i64 %83
  %85 = load i32, ptr %19, align 4, !tbaa !45
  %86 = load i32, ptr %15, align 4, !tbaa !45
  %87 = mul nsw i32 %85, %86
  %88 = load float, ptr %18, align 4, !tbaa !56
  %89 = load float, ptr %12, align 4, !tbaa !56
  %90 = load float, ptr %11, align 4, !tbaa !56
  call void %76(ptr noundef %84, i32 noundef %87, float noundef %88, float noundef %89, float noundef %90)
  call void @llvm.lifetime.end.p0(i64 4, ptr %19) #8
  call void @llvm.lifetime.end.p0(i64 4, ptr %18) #8
  call void @llvm.lifetime.end.p0(i64 4, ptr %17) #8
  call void @llvm.lifetime.end.p0(i64 4, ptr %16) #8
  call void @llvm.lifetime.end.p0(i64 4, ptr %15) #8
  call void @llvm.lifetime.end.p0(i64 4, ptr %14) #8
  call void @llvm.lifetime.end.p0(i64 4, ptr %13) #8
  call void @llvm.lifetime.end.p0(i64 4, ptr %12) #8
  call void @llvm.lifetime.end.p0(i64 4, ptr %11) #8
  call void @llvm.lifetime.end.p0(i64 8, ptr %10) #8
  call void @llvm.lifetime.end.p0(i64 8, ptr %9) #8
  ret i32 0
}