; Function Attrs: nounwind uwtable
define internal noundef i32 @filter_postscale(ptr noundef readonly captures(none) %0, ptr noundef readonly captures(none) %1, i32 noundef %2, i32 noundef %3) #2 {
  %5 = getelementptr inbounds nuw i8, ptr %0, i64 72
  %6 = load ptr, ptr %5, align 8, !tbaa !4
  %7 = getelementptr inbounds nuw i8, ptr %6, i64 24
  %8 = load i32, ptr %7, align 8, !tbaa !49
  %.not = icmp eq i32 %8, 0
  br i1 %.not, label %9, label %14

9:                                                ; preds = %4
  %10 = getelementptr inbounds nuw i8, ptr %6, i64 28
  %11 = load i32, ptr %10, align 4, !tbaa !48
  %notmask = shl nsw i32 -1, %11
  %12 = xor i32 %notmask, -1
  %13 = uitofp nneg i32 %12 to float
  br label %14

14:                                               ; preds = %4, %9
  %15 = phi float [ 0.000000e+00, %9 ], [ 0xC7EFFFFFE0000000, %4 ]
  %16 = phi nsz float [ %13, %9 ], [ 0x47EFFFFFE0000000, %4 ]
  %17 = load i32, ptr %1, align 4, !tbaa !60
  %18 = getelementptr inbounds nuw i8, ptr %1, i64 4
  %19 = load i32, ptr %18, align 4, !tbaa !58
  %20 = add nsw i32 %19, 63
  %21 = and i32 %20, -64
  %22 = mul nsw i32 %17, %2
  %23 = sdiv i32 %22, %3
  %24 = add nsw i32 %2, 1
  %25 = mul nsw i32 %17, %24
  %26 = sdiv i32 %25, %3
  %27 = getelementptr inbounds nuw i8, ptr %6, i64 96
  %28 = load float, ptr %27, align 8, !tbaa !83
  %29 = getelementptr inbounds nuw i8, ptr %6, i64 100
  %30 = load float, ptr %29, align 4, !tbaa !84
  %31 = fmul nsz float %28, %30
  %32 = sub nsw i32 %26, %23
  %33 = getelementptr inbounds nuw i8, ptr %6, i64 136
  %34 = load ptr, ptr %33, align 8, !tbaa !77
  %35 = getelementptr inbounds nuw i8, ptr %6, i64 72
  %36 = load ptr, ptr %35, align 8, !tbaa !45
  %37 = mul nsw i32 %21, %23
  %38 = sext i32 %37 to i64
  %39 = getelementptr inbounds float, ptr %36, i64 %38
  %40 = mul nsw i32 %32, %21
  tail call void %34(ptr noundef %39, i32 noundef %40, float noundef %31, float noundef %15, float noundef %16) #8
  ret i32 0
}